(lp0
(lp1
ccopy_reg
_reconstructor
p2
(cgeometry_msgs.msg._Pose
Pose
p3
c__builtin__
object
p4
Ntp5
Rp6
(lp7
g2
(cgeometry_msgs.msg._Point
Point
p8
g4
Ntp9
Rp10
(lp11
F-0.079488180577754974
aF0.033894401043653488
aF0.52846115827560425
abag2
(cgeometry_msgs.msg._Quaternion
Quaternion
p12
g4
Ntp13
Rp14
(lp15
F0.22651900351047516
aF0.21403183043003082
aF0.25459444522857666
aF-0.91545683145523071
ababag2
(cgeometry_msgs.msg._Transform
Transform
p16
g4
Ntp17
Rp18
(lp19
g2
(cgeometry_msgs.msg._Vector3
Vector3
p20
g4
Ntp21
Rp22
(lp23
F0.48418103105403709
aF0.24131597328042056
aF0.22354159605128049
abag2
(g12
g4
Ntp24
Rp25
(lp26
F0.30664638892133061
aF-0.25677059985343659
aF0.88658456488328496
aF-0.2323890284052362
ababaa(lp27
g2
(g3
g4
Ntp28
Rp29
(lp30
g2
(g8
g4
Ntp31
Rp32
(lp33
F-0.08762127161026001
aF0.072604857385158539
aF0.47322693467140198
abag2
(g12
g4
Ntp34
Rp35
(lp36
F-0.09268614649772644
aF0.12635247409343719
aF0.3844720721244812
aF-0.90973925590515137
ababag2
(g16
g4
Ntp37
Rp38
(lp39
g2
(g20
g4
Ntp40
Rp41
(lp42
F0.57357136062579916
aF0.059496193186317076
aF-0.10059632968657264
abag2
(g12
g4
Ntp43
Rp44
(lp45
F0.010025222379349996
aF0.18801702075394011
aF-0.91309919484765034
aF0.36166138194723729
ababaa(lp46
g2
(g3
g4
Ntp47
Rp48
(lp49
g2
(g8
g4
Ntp50
Rp51
(lp52
F-0.11209593713283539
aF0.058328017592430115
aF0.51364076137542725
abag2
(g12
g4
Ntp53
Rp54
(lp55
F0.14181600511074066
aF0.033228661864995956
aF0.4031701385974884
aF-0.90345883369445801
ababag2
(g16
g4
Ntp56
Rp57
(lp58
g2
(g20
g4
Ntp59
Rp60
(lp61
F0.55158579390217111
aF0.05949002790313488
aF0.18671743154910311
abag2
(g12
g4
Ntp62
Rp63
(lp64
F0.21620900069864746
aF-0.092683242368094193
aF0.88718537968841549
aF-0.39694531949394785
ababaa(lp65
g2
(g3
g4
Ntp66
Rp67
(lp68
g2
(g8
g4
Ntp69
Rp70
(lp71
F0.011876463890075684
aF-0.037696242332458496
aF0.46737515926361084
abag2
(g12
g4
Ntp72
Rp73
(lp74
F0.24367052316665649
aF-0.38582053780555725
aF0.056246448308229446
aF0.88803350925445557
ababag2
(g16
g4
Ntp75
Rp76
(lp77
g2
(g20
g4
Ntp78
Rp79
(lp80
F0.43881670545730828
aF0.36402110319655129
aF-0.13231645367517372
abag2
(g12
g4
Ntp81
Rp82
(lp83
F0.15695102435871067
aF0.39379426055906686
aF-0.89919626055000124
aF-0.1083445490847658
ababaa(lp84
g2
(g3
g4
Ntp85
Rp86
(lp87
g2
(g8
g4
Ntp88
Rp89
(lp90
F-0.013192699290812016
aF-0.073101237416267395
aF0.48737087845802307
abag2
(g12
g4
Ntp91
Rp92
(lp93
F-0.021941430866718292
aF0.39046171307563782
aF0.038079824298620224
aF-0.91956955194473267
ababag2
(g16
g4
Ntp94
Rp95
(lp96
g2
(g20
g4
Ntp97
Rp98
(lp99
F0.4485547761838275
aF0.36405426904060001
aF0.094128269983330612
abag2
(g12
g4
Ntp100
Rp101
(lp102
F0.07020907284649569
aF-0.40836788531062668
aF0.91008066554946587
aF0.0077161214359707945
ababaa(lp103
g2
(g3
g4
Ntp104
Rp105
(lp106
g2
(g8
g4
Ntp107
Rp108
(lp109
F-0.047348532825708389
aF-0.089394830167293549
aF0.51907873153686523
abag2
(g12
g4
Ntp110
Rp111
(lp112
F0.20719499886035919
aF0.36994373798370361
aF0.13235482573509216
aF-0.89593195915222168
ababag2
(g16
g4
Ntp113
Rp114
(lp115
g2
(g20
g4
Ntp116
Rp117
(lp118
F0.34853831213945519
aF0.36405236315163425
aF0.29766910266126595
abag2
(g12
g4
Ntp119
Rp120
(lp121
F0.29319488454758486
aF-0.39754114712004973
aF0.86443410476848381
aF-0.093549316056896772
ababaa(lp122
g2
(g3
g4
Ntp123
Rp124
(lp125
g2
(g8
g4
Ntp126
Rp127
(lp128
F-0.021528651937842369
aF-0.025310570374131203
aF0.44246634840965271
abag2
(g12
g4
Ntp129
Rp130
(lp131
F-0.3278680145740509
aF0.29146286845207214
aF0.15859790146350861
aF-0.88453298807144165
ababag2
(g16
g4
Ntp132
Rp133
(lp134
g2
(g20
g4
Ntp135
Rp136
(lp137
F0.44979163599796967
aF0.24135937766579782
aF-0.28641934279025655
abag2
(g12
g4
Ntp138
Rp139
(lp140
F0.24732680109548702
aF0.32704870583082163
aF-0.904909056313005
aF0.11405348428244184
ababaa(lp141
g2
(g3
g4
Ntp142
Rp143
(lp144
g2
(g8
g4
Ntp145
Rp146
(lp147
F-0.05084686353802681
aF-0.059190914034843445
aF0.45974642038345337
abag2
(g12
g4
Ntp148
Rp149
(lp150
F-0.10400183498859406
aF0.24677805602550507
aF0.22415335476398468
aF-0.93703758716583252
ababag2
(g16
g4
Ntp151
Rp152
(lp153
g2
(g20
g4
Ntp154
Rp155
(lp156
F0.53205975478834877
aF0.24132348056619854
aF-0.035961667145915872
abag2
(g12
g4
Ntp157
Rp158
(lp159
F0.015971671619599691
aF0.28865204482149842
aF-0.93797198366682744
aF0.19139869535182708
ababaa(lp160
g2
(g3
g4
Ntp161
Rp162
(lp163
g2
(g8
g4
Ntp164
Rp165
(lp166
F-0.080207265913486481
aF-0.077157415449619293
aF0.49497127532958984
abag2
(g12
g4
Ntp167
Rp168
(lp169
F0.13275425136089325
aF0.18585625290870667
aF0.27729415893554688
aF-0.9332425594329834
ababag2
(g16
g4
Ntp170
Rp171
(lp172
g2
(g20
g4
Ntp173
Rp174
(lp175
F0.48417925312710081
aF0.24131671099547836
aF0.22353775584981611
abag2
(g12
g4
Ntp176
Rp177
(lp178
F0.2166017561636043
aF-0.2322971962444767
aF0.91276551222543023
aF-0.2568673033604042
ababaa(lp179
g2
(g3
g4
Ntp180
Rp181
(lp182
g2
(g8
g4
Ntp183
Rp184
(lp185
F-0.054742991924285889
aF0.0023065255954861641
aF0.43282076716423035
abag2
(g12
g4
Ntp186
Rp187
(lp188
F-0.39367368817329407
aF0.17701824009418488
aF0.36629429459571838
aF-0.82432639598846436
ababag2
(g16
g4
Ntp189
Rp190
(lp191
g2
(g20
g4
Ntp192
Rp193
(lp194
F0.45526427477371723
aF0.059543102120661009
aF-0.36306660045306655
abag2
(g12
g4
Ntp195
Rp196
(lp197
F0.32233574367655693
aF0.23993266629021492
aF-0.85437669920568327
aF0.32950332297224155
ababaa(lp198
g2
(g3
g4
Ntp199
Rp200
(lp201
g2
(g8
g4
Ntp202
Rp203
(lp204
F-0.088252373039722443
aF-0.028103278949856758
aF0.44910109043121338
abag2
(g12
g4
Ntp205
Rp206
(lp207
F-0.18293300271034241
aF0.083635330200195312
aF0.39796000719070435
aF-0.89508014917373657
ababag2
(g16
g4
Ntp208
Rp209
(lp210
g2
(g20
g4
Ntp211
Rp212
(lp213
F0.57356778946585751
aF0.05949721279166776
aF-0.1006009181907702
abag2
(g12
g4
Ntp214
Rp215
(lp216
F0.10113760025798234
aF0.15098358716754939
aF-0.90753343182410495
aF0.3786267454124676
ababaa(lp217
g2
(g3
g4
Ntp218
Rp219
(lp220
g2
(g8
g4
Ntp221
Rp222
(lp223
F-0.11285286396741867
aF-0.050096824765205383
aF0.48607105016708374
abag2
(g12
g4
Ntp224
Rp225
(lp226
F0.048307426273822784
aF-0.0089623099192976952
aF0.40699422359466553
aF-0.91210842132568359
ababag2
(g16
g4
Ntp227
Rp228
(lp229
g2
(g20
g4
Ntp230
Rp231
(lp232
F0.55156905610554097
aF0.059491222969096438
aF0.18675818334696925
abag2
(g12
g4
Ntp233
Rp234
(lp235
F0.12659089468224927
aF-0.052586034907557942
aF0.90433069431123214
aF-0.40422203013048941
ababaa(lp236
g2
(g3
g4
Ntp237
Rp238
(lp239
g2
(g8
g4
Ntp240
Rp241
(lp242
F0.11062401533126831
aF0.070496663451194763
aF0.48800265789031982
abag2
(g12
g4
Ntp243
Rp244
(lp245
F0.17938895523548126
aF-0.29069402813911438
aF0.12621442973613739
aF0.93133586645126343
ababag2
(g16
g4
Ntp246
Rp247
(lp248
g2
(g20
g4
Ntp249
Rp250
(lp251
F0.43882279772622274
aF0.36402242474141849
aF-0.13231935179187543
abag2
(g12
g4
Ntp252
Rp253
(lp254
F0.091309511623404699
aF0.2902842265127395
aF-0.93785268653903275
aF-0.16682319765702647
ababaa(lp255
g2
(g3
g4
Ntp256
Rp257
(lp258
g2
(g8
g4
Ntp259
Rp260
(lp261
F0.093668177723884583
aF0.03768293559551239
aF0.51874452829360962
abag2
(g12
g4
Ntp262
Rp263
(lp264
F-0.051677912473678589
aF-0.31502038240432739
aF0.053306851536035538
aF0.94617646932601929
ababag2
(g16
g4
Ntp265
Rp266
(lp267
g2
(g20
g4
Ntp268
Rp269
(lp270
F0.44856278610991468
aF0.36405420385580972
aF0.094129637629599028
abag2
(g12
g4
Ntp271
Rp272
(lp273
F0.14336306185977926
aF-0.32251806947628125
aF0.93130818245608371
aF0.089967753366593795
ababaa(lp274
g2
(g3
g4
Ntp275
Rp276
(lp277
g2
(g8
g4
Ntp278
Rp279
(lp280
F0.066930361092090607
aF0.024921538308262825
aF0.55827945470809937
abag2
(g12
g4
Ntp281
Rp282
(lp283
F0.28415697813034058
aF0.32027968764305115
aF0.025261824950575829
aF-0.90334796905517578
ababag2
(g16
g4
Ntp284
Rp285
(lp286
g2
(g20
g4
Ntp287
Rp288
(lp289
F0.3485419689652593
aF0.36405213377996637
aF0.29767803492810929
abag2
(g12
g4
Ntp290
Rp291
(lp292
F0.36933427630680793
aF-0.33470690565261035
aF0.86689618853624228
aF0.0073809182840921918
ababaa(lp293
g2
(g3
g4
Ntp294
Rp295
(lp296
g2
(g8
g4
Ntp297
Rp298
(lp299
F0.072531595826148987
aF0.073975741863250732
aF0.46705189347267151
abag2
(g12
g4
Ntp300
Rp301
(lp302
F-0.24011166393756866
aF0.21493685245513916
aF0.10259891301393509
aF-0.9410749077796936
ababag2
(g16
g4
Ntp303
Rp304
(lp305
g2
(g20
g4
Ntp306
Rp307
(lp308
F0.44979948696438021
aF0.24135846311507803
aF-0.28642006455274249
abag2
(g12
g4
Ntp309
Rp310
(lp311
F0.15716170516264893
aF0.24226519642051245
aF-0.95497259092851061
aF0.068081742111870347
ababaa(lp312
g2
(g3
g4
Ntp313
Rp314
(lp315
g2
(g8
g4
Ntp316
Rp317
(lp318
F0.050788149237632751
aF0.041602447628974915
aF0.49530482292175293
abag2
(g12
g4
Ntp319
Rp320
(lp321
F-0.0049146590754389763
aF0.18537700176239014
aF0.15067809820175171
aF-0.97103416919708252
ababag2
(g16
g4
Ntp322
Rp323
(lp324
g2
(g20
g4
Ntp325
Rp326
(lp327
F0.53206736390810139
aF0.24132207205611891
aF-0.035960850183173534
abag2
(g12
g4
Ntp328
Rp329
(lp330
F0.083776039175440215
aF-0.21786580791320684
aF0.96419138690903394
aF-0.12590089123125114
ababaa(lp331
g2
(g3
g4
Ntp332
Rp333
(lp334
g2
(g8
g4
Ntp335
Rp336
(lp337
F0.029478758573532104
aF0.02840927429497242
aF0.53695189952850342
abag2
(g12
g4
Ntp338
Rp339
(lp340
F0.23653765022754669
aF0.14684519171714783
aF0.19073891639709473
aF-0.94133156538009644
ababag2
(g16
g4
Ntp341
Rp342
(lp343
g2
(g20
g4
Ntp344
Rp345
(lp346
F0.48418497645601349
aF0.24131488310649316
aF0.22354450071742415
abag2
(g12
g4
Ntp347
Rp348
(lp349
F0.3197395798656813
aF-0.17991552146287554
aF0.91348681173298385
aF-0.17589443138987715
ababaa(lp350
g2
(g3
g4
Ntp351
Rp352
(lp353
g2
(g8
g4
Ntp354
Rp355
(lp356
F0.0084529183804988861
aF0.065760537981987
aF0.48509758710861206
abag2
(g12
g4
Ntp357
Rp358
(lp359
F-0.062005836516618729
aF0.040954265743494034
aF0.34797123074531555
aF-0.9345555305480957
ababag2
(g16
g4
Ntp360
Rp361
(lp362
g2
(g20
g4
Ntp363
Rp364
(lp365
F0.57357528788785872
aF0.059494527935713193
aF-0.10059645581230654
abag2
(g12
g4
Ntp366
Rp367
(lp368
F0.019005572854501846
aF-0.099664445619824779
aF0.93711244978599395
aF-0.33395515108445245
ababaa(lp369
g2
(g3
g4
Ntp370
Rp371
(lp372
g2
(g8
g4
Ntp373
Rp374
(lp375
F-0.0073403231799602509
aF0.049564916640520096
aF0.52966004610061646
abag2
(g12
g4
Ntp376
Rp377
(lp378
F0.16998903453350067
aF-0.036994956433773041
aF0.34647324681282043
aF-0.92178702354431152
ababag2
(g16
g4
Ntp379
Rp380
(lp381
g2
(g20
g4
Ntp382
Rp383
(lp384
F0.55157435845388347
aF0.059488083966209152
aF0.18676410859457318
abag2
(g12
g4
Ntp385
Rp386
(lp387
F0.25031656596994295
aF-0.013918398024092364
aF0.90325858272976745
aF-0.34824104830199198
ababaa(lp388
g2
(g3
g4
Ntp389
Rp390
(lp391
g2
(g8
g4
Ntp392
Rp393
(lp394
F0.11015313863754272
aF-0.034022882580757141
aF0.4622342586517334
abag2
(g12
g4
Ntp395
Rp396
(lp397
F0.27264353632926941
aF-0.30245068669319153
aF0.094258926808834076
aF0.90846264362335205
ababag2
(g16
g4
Ntp398
Rp399
(lp400
g2
(g20
g4
Ntp401
Rp402
(lp403
F0.4388215702262534
aF0.36402221561048659
aF-0.13231957834658337
abag2
(g12
g4
Ntp404
Rp405
(lp406
F0.18448040919364386
aF0.30549322969102971
aF-0.92405073190000186
aF-0.13700770092137127
ababaa(lp407
g2
(g3
g4
Ntp408
Rp409
(lp410
g2
(g8
g4
Ntp411
Rp412
(lp413
F0.093045592308044434
aF-0.072201035916805267
aF0.48568746447563171
abag2
(g12
g4
Ntp414
Rp415
(lp416
F0.043875031173229218
aF-0.3184906542301178
aF0.018925895914435387
aF0.94672089815139771
ababag2
(g16
g4
Ntp417
Rp418
(lp419
g2
(g20
g4
Ntp420
Rp421
(lp422
F0.44856129021300944
aF0.36405433472470344
aF0.094129646277548565
abag2
(g12
g4
Ntp423
Rp424
(lp425
F0.049673188126996955
aF-0.32989383758318008
aF0.94096617786187675
aF0.057317383278957072
ababaa(lp426
g2
(g3
g4
Ntp427
Rp428
(lp429
g2
(g8
g4
Ntp430
Rp431
(lp432
F0.072129063308238983
aF-0.026209305971860886
aF0.44260790944099426
abag2
(g12
g4
Ntp433
Rp434
(lp435
F-0.33473315834999084
aF0.20294570922851562
aF0.12569503486156464
aF-0.91157418489456177
ababag2
(g16
g4
Ntp436
Rp437
(lp438
g2
(g20
g4
Ntp439
Rp440
(lp441
F0.44979764299111791
aF0.2413586731560276
aF-0.28642053045014659
abag2
(g12
g4
Ntp442
Rp443
(lp444
F0.25171479620733356
aF0.23426437629073843
aF-0.93451003163465196
aF0.091928581766571343
ababaa(lp445
g2
(g3
g4
Ntp446
Rp447
(lp448
g2
(g8
g4
Ntp449
Rp450
(lp451
F0.050155423581600189
aF-0.063389316201210022
aF0.4631812572479248
abag2
(g12
g4
Ntp452
Rp453
(lp454
F-0.10137709230184555
aF0.17010097205638885
aF0.17074315249919891
aF-0.96521246433258057
ababag2
(g16
g4
Ntp455
Rp456
(lp457
g2
(g20
g4
Ntp458
Rp459
(lp460
F0.53206589632823909
aF0.24132231580006053
aF-0.035962156959410199
abag2
(g12
g4
Ntp461
Rp462
(lp463
F0.012901640459364884
aF0.20421478133791754
aF-0.96773631499653567
aF0.14702481216955479
ababaa(lp464
g2
(g3
g4
Ntp465
Rp466
(lp467
g2
(g8
g4
Ntp468
Rp469
(lp470
F0.02877434715628624
aF-0.084570534527301788
aF0.50115799903869629
abag2
(g12
g4
Ntp471
Rp472
(lp473
F0.13952326774597168
aF0.12629622220993042
aF0.20682866871356964
aF-0.96010643243789673
ababag2
(g16
g4
Ntp474
Rp475
(lp476
g2
(g20
g4
Ntp477
Rp478
(lp479
F0.48418469364299616
aF0.24131520871847331
aF0.22354175234743245
abag2
(g12
g4
Ntp480
Rp481
(lp482
F0.22694378546937283
aF-0.16146281243489588
aF0.94084239750014997
aF-0.19298150559992722
ababaa(lp483
g2
(g3
g4
Ntp484
Rp485
(lp486
g2
(g8
g4
Ntp487
Rp488
(lp489
F0.034572433680295944
aF-0.0031591111328452826
aF0.43811604380607605
abag2
(g12
g4
Ntp490
Rp491
(lp492
F-0.37646341323852539
aF0.089747391641139984
aF0.34104523062705994
aF-0.85668480396270752
ababag2
(g16
g4
Ntp493
Rp494
(lp495
g2
(g20
g4
Ntp496
Rp497
(lp498
F0.45526879316016844
aF0.059540553742151142
aF-0.36306920163685069
abag2
(g12
g4
Ntp499
Rp500
(lp501
F0.30329963856488884
aF0.14843136485527564
aF-0.88688655661196891
aF0.31529303017125565
ababaa(lp502
g2
(g3
g4
Ntp503
Rp504
(lp505
g2
(g8
g4
Ntp506
Rp507
(lp508
F0.0079412562772631645
aF-0.037480644881725311
aF0.45830896496772766
abag2
(g12
g4
Ntp509
Rp510
(lp511
F-0.15735065937042236
aF0.0043484088964760303
aF0.352460116147995
aF-0.92249321937561035
ababag2
(g16
g4
Ntp512
Rp513
(lp514
g2
(g20
g4
Ntp515
Rp516
(lp517
F0.57357375016841416
aF0.059494916660368095
aF-0.10059796356455497
abag2
(g12
g4
Ntp518
Rp519
(lp520
F0.074646932843972724
aF0.065834257804983309
aF-0.9343265307184847
aF0.34223912679854462
ababaa(lp521
g2
(g3
g4
Ntp522
Rp523
(lp524
g2
(g8
g4
Ntp525
Rp526
(lp527
F-0.0079181473702192307
aF-0.062152940779924393
aF0.49839410185813904
abag2
(g12
g4
Ntp528
Rp529
(lp530
F0.074985787272453308
aF-0.072098881006240845
aF0.34335321187973022
aF-0.93342781066894531
ababag2
(g16
g4
Ntp531
Rp532
(lp533
g2
(g20
g4
Ntp534
Rp535
(lp536
F0.55157340391884357
aF0.059488556598542873
aF0.18676307260179062
abag2
(g12
g4
Ntp537
Rp538
(lp539
F0.15888870718449638
aF0.020910706174260815
aF0.92373485626030627
aF-0.34789515148430578
ababaa(lp540
g2
(g3
g4
Ntp541
Rp542
(lp543
g2
(g8
g4
Ntp544
Rp545
(lp546
F0.18030816316604614
aF0.03388030081987381
aF0.53993374109268188
abag2
(g12
g4
Ntp547
Rp548
(lp549
F-0.2692166268825531
aF-0.25453335046768188
aF0.042987629771232605
aF0.92784011363983154
ababag2
(g16
g4
Ntp550
Rp551
(lp552
g2
(g20
g4
Ntp553
Rp554
(lp555
F0.34854783355107094
aF0.36405206340348445
aF0.2976791891662946
abag2
(g12
g4
Ntp556
Rp557
(lp558
F0.35694288570040833
aF-0.26118190746061654
aF0.8942823214342881
aF0.068080225713485931
ababaa(lp559
g2
(g3
g4
Ntp560
Rp561
(lp562
g2
(g8
g4
Ntp563
Rp564
(lp565
F0.15246450901031494
aF0.048519302159547806
aF0.48230785131454468
abag2
(g12
g4
Ntp566
Rp567
(lp568
F0.00089214358013123274
aF0.10070294886827469
aF0.10288279503583908
aF-0.989582359790802
ababag2
(g16
g4
Ntp569
Rp570
(lp571
g2
(g20
g4
Ntp572
Rp573
(lp574
F0.5320719703144724
aF0.24132121268575113
aF-0.035960197786192097
abag2
(g12
g4
Ntp575
Rp576
(lp577
F0.088967043617176292
aF-0.12724522300965682
aF0.98386309264760208
aF-0.088920938462967905
ababaa(lp578
g2
(g3
g4
Ntp579
Rp580
(lp581
g2
(g8
g4
Ntp582
Rp583
(lp584
F0.13976390659809113
aF0.033543545752763748
aF0.52600240707397461
abag2
(g12
g4
Ntp585
Rp586
(lp587
F0.24493898451328278
aF0.07743651419878006
aF0.12345895171165466
aF-0.95852303504943848
ababag2
(g16
g4
Ntp588
Rp589
(lp590
g2
(g20
g4
Ntp591
Rp592
(lp593
F0.48418844352998081
aF0.24131377341555585
aF0.22354863570102504
abag2
(g12
g4
Ntp594
Rp595
(lp596
F0.32963921647426292
aF-0.10126128371246694
aF0.93125956028689405
aF-0.11764255504449554
ababaa(lp597
g2
(g3
g4
Ntp598
Rp599
(lp600
g2
(g8
g4
Ntp601
Rp602
(lp603
F0.10695687681436539
aF0.068457864224910736
aF0.48028934001922607
abag2
(g12
g4
Ntp604
Rp605
(lp606
F-0.031116589903831482
aF-0.045760359615087509
aF0.30648049712181091
aF-0.95026701688766479
ababag2
(g16
g4
Ntp607
Rp608
(lp609
g2
(g20
g4
Ntp610
Rp611
(lp612
F0.57357977737207178
aF0.059492842792879329
aF-0.10059382475361513
abag2
(g12
g4
Ntp613
Rp614
(lp615
F0.047849454412681687
aF-0.01031431342682331
aF0.95176047929433327
aF-0.30291258591276726
ababaa(lp616
g2
(g3
g4
Ntp617
Rp618
(lp619
g2
(g8
g4
Ntp620
Rp621
(lp622
F0.10060121119022369
aF0.051052957773208618
aF0.52600717544555664
abag2
(g12
g4
Ntp623
Rp624
(lp625
F0.19802357256412506
aF-0.10570638626813889
aF0.28549635410308838
aF-0.93172132968902588
ababag2
(g16
g4
Ntp626
Rp627
(lp628
g2
(g20
g4
Ntp629
Rp630
(lp631
F0.55157697199812217
aF0.059486124598421161
aF0.18676948299820936
abag2
(g12
g4
Ntp632
Rp633
(lp634
F0.28189009137362153
aF0.064971408551686843
aF0.9103126192654265
aF-0.29605342028475168
ababaa(lp635
g2
(g3
g4
Ntp636
Rp637
(lp638
g2
(g8
g4
Ntp639
Rp640
(lp641
F0.13940705358982086
aF-0.077999569475650787
aF0.49250450730323792
abag2
(g12
g4
Ntp642
Rp643
(lp644
F0.1475488543510437
aF0.063630677759647369
aF0.13261348009109497
aF-0.97805631160736084
ababag2
(g16
g4
Ntp645
Rp646
(lp647
g2
(g20
g4
Ntp648
Rp649
(lp650
F0.48417273425195861
aF0.24131366673970003
aF0.22358377751011616
abag2
(g12
g4
Ntp651
Rp652
(lp653
F0.23505626502044935
aF-0.089008580832499962
aF0.95950700238391951
aF-0.12717050439879937
ababaa(lp654
g2
(g3
g4
Ntp655
Rp656
(lp657
g2
(g8
g4
Ntp658
Rp659
(lp660
F0.12529419362545013
aF0.0029792441055178642
aF0.43059346079826355
abag2
(g12
g4
Ntp661
Rp662
(lp663
F-0.35492879152297974
aF-0.0010372712276875973
aF0.31199193000793457
aF-0.88129758834838867
ababag2
(g16
g4
Ntp664
Rp665
(lp666
g2
(g20
g4
Ntp667
Rp668
(lp669
F0.45527425947243366
aF0.059538374733063462
aF-0.36307073583929778
abag2
(g12
g4
Ntp670
Rp671
(lp672
F0.28123019453151982
aF0.055445719615300343
aF-0.91053375146803117
aF0.29793226964808328
ababaa(lp673
g2
(g3
g4
Ntp674
Rp675
(lp676
g2
(g8
g4
Ntp677
Rp678
(lp679
F0.10664104670286179
aF-0.034417230635881424
aF0.45424783229827881
abag2
(g12
g4
Ntp680
Rp681
(lp682
F-0.12940751016139984
aF-0.077485010027885437
aF0.30223914980888367
aF-0.94122326374053955
ababag2
(g16
g4
Ntp683
Rp684
(lp685
g2
(g20
g4
Ntp686
Rp687
(lp688
F0.57357939934511992
aF0.059492587556795082
aF-0.10059748145220136
abag2
(g12
g4
Ntp689
Rp690
(lp691
F0.047411121028563298
aF-0.019973245368436695
aF-0.95178172305635111
aF0.30243149096637106
ababaa(lp692
g2
(g3
g4
Ntp693
Rp694
(lp695
g2
(g8
g4
Ntp696
Rp697
(lp698
F0.10019968450069427
aF-0.060625191777944565
aF0.49545145034790039
abag2
(g12
g4
Ntp699
Rp700
(lp701
F0.10449348390102386
aF-0.13592299818992615
aF0.27498102188110352
aF-0.94603991508483887
ababag2
(g16
g4
Ntp702
Rp703
(lp704
g2
(g20
g4
Ntp705
Rp706
(lp707
F0.55157752133390081
aF0.059485848487537393
aF0.18676900365431892
abag2
(g12
g4
Ntp708
Rp709
(lp710
F0.18960052905332078
aF0.094199726909414527
aF0.93390651040918904
aF-0.28809144494105282
ababaa(lp711
g2
(g3
g4
Ntp712
Rp713
(lp714
g2
(g8
g4
Ntp715
Rp716
(lp717
F0.10014994442462921
aF-0.060615714639425278
aF0.49518904089927673
abag2
(g12
g4
Ntp718
Rp719
(lp720
F0.10537862032651901
aF-0.13627056777477264
aF0.27481359243392944
aF-0.94594037532806396
ababag2
(g16
g4
Ntp721
Rp722
(lp723
g2
(g20
g4
Ntp724
Rp725
(lp726
F0.43883026391992136
aF0.3640372172244003
aF-0.13229361456744512
abag2
(g12
g4
Ntp727
Rp728
(lp729
F0.02482005580012938
aF-0.36436176459950775
aF0.91246955755475967
aF0.18445534924153523
ababaa(lp730
g2
(g3
g4
Ntp731
Rp732
(lp733
g2
(g8
g4
Ntp734
Rp735
(lp736
F0.012358528561890125
aF0.067425653338432312
aF0.49334976077079773
abag2
(g12
g4
Ntp737
Rp738
(lp739
F0.15316881239414215
aF-0.37857580184936523
aF0.097485870122909546
aF0.90758812427520752
ababag2
(g16
g4
Ntp740
Rp741
(lp742
g2
(g20
g4
Ntp743
Rp744
(lp745
F0.43881951835188715
aF0.36402135858471929
aF-0.13231696984813249
abag2
(g12
g4
Ntp746
Rp747
(lp748
F0.066400106676067452
aF0.38100288072124205
aF-0.91037577751070575
aF-0.14711823285134742
ababaa(lp749
g2
(g3
g4
Ntp750
Rp751
(lp752
g2
(g8
g4
Ntp753
Rp754
(lp755
F-0.012567234225571156
aF0.036767512559890747
aF0.52125066518783569
abag2
(g12
g4
Ntp756
Rp757
(lp758
F-0.070656478404998779
aF-0.39172738790512085
aF0.004196100402623415
aF0.9173547625541687
ababag2
(g16
g4
Ntp759
Rp760
(lp761
g2
(g20
g4
Ntp762
Rp763
(lp764
F0.44855812191511041
aF0.36405415713931427
aF0.094128340872411967
abag2
(g12
g4
Ntp765
Rp766
(lp767
F0.1607120701136967
aF-0.40554905695763382
aF0.89852895994302395
aF0.048448953180128179
ababaa(lp768
g2
(g3
g4
Ntp769
Rp770
(lp771
g2
(g8
g4
Ntp772
Rp773
(lp774
F-0.046695370227098465
aF0.027004934847354889
aF0.55538058280944824
abag2
(g12
g4
Ntp775
Rp776
(lp777
F0.29601040482521057
aF0.38232603669166565
aF0.091844558715820312
aF-0.87049943208694458
ababag2
(g16
g4
Ntp778
Rp779
(lp780
g2
(g20
g4
Ntp781
Rp782
(lp783
F0.34853814971025382
aF0.36405219096966496
aF0.29767461806122963
abag2
(g12
g4
Ntp784
Rp785
(lp786
F0.37803233153905602
aF-0.40488585738285227
aF0.83084797584388415
aF-0.053391383561567654
ababaa(lp787
g2
(g3
g4
Ntp788
Rp789
(lp790
g2
(g8
g4
Ntp791
Rp792
(lp793
F-0.021040353924036026
aF0.074400320649147034
aF0.46646863222122192
abag2
(g12
g4
Ntp794
Rp795
(lp796
F-0.23761390149593353
aF0.30640369653701782
aF0.12571084499359131
aF-0.91315561532974243
ababag2
(g16
g4
Ntp797
Rp798
(lp799
g2
(g20
g4
Ntp800
Rp801
(lp802
F0.44979441080022964
aF0.24135856690107227
aF-0.28642067190912091
abag2
(g12
g4
Ntp803
Rp804
(lp805
F0.15575257669339143
aF0.33679198638882324
aF-0.92508277059021327
aF0.080834153145647639
ababaa(lp806
g2
(g3
g4
Ntp807
Rp808
(lp809
g2
(g8
g4
Ntp810
Rp811
(lp812
F-0.050242777913808823
aF0.04456627368927002
aF0.49085080623626709
abag2
(g12
g4
Ntp813
Rp814
(lp815
F-0.0089659681543707848
aF0.26805225014686584
aF0.19525313377380371
aF-0.94336831569671631
ababag2
(g16
g4
Ntp816
Rp817
(lp818
g2
(g20
g4
Ntp819
Rp820
(lp821
F0.53206276328420099
aF0.24132291746482792
aF-0.03596261743499108
abag2
(g12
g4
Ntp822
Rp823
(lp824
F0.077747418135521676
aF-0.30630850354150901
aF0.93488419967336511
aF-0.16162293411675666
ababaa.